target datalayout = "e-m:e-p270:32:32-p271:32:32-p272:64:64-i64:64-i128:128-f80:128-n8:16:32:64-S128"
target triple = "x86_64-pc-linux-gnu"

%struct.raxIterator = type { i32, ptr, ptr, ptr, i64, i64, [128 x i8], ptr, %struct.raxStack, ptr }
%struct.raxStack = type { ptr, i64, i64, [32 x ptr], i32 }
%struct.bcastState = type { ptr, ptr }

@PrefixTable = dso_local global ptr null, align 8
@.str = private unnamed_addr constant [2 x i8] c"^\00", align 1

; Function Attrs: nounwind uwtable
define dso_local void @trackingRememberKeyToBroadcast(ptr noundef %0, ptr noundef %1, i64 noundef %2) #0 {
  %4 = alloca ptr, align 8
  %5 = alloca ptr, align 8
  %6 = alloca i64, align 8
  %7 = alloca %struct.raxIterator, align 8
  %8 = alloca ptr, align 8
  store ptr %0, ptr %4, align 8, !tbaa !5
  store ptr %1, ptr %5, align 8, !tbaa !71
  store i64 %2, ptr %6, align 8, !tbaa !67
  call void @llvm.lifetime.start.p0(i64 480, ptr %7) #10
  %9 = load ptr, ptr @PrefixTable, align 8, !tbaa !31
  call void @raxStart(ptr noundef %7, ptr noundef %9)
  %10 = call i32 @raxSeek(ptr noundef %7, ptr noundef @.str, ptr noundef null, i64 noundef 0)
  br label %11

11:                                               ; preds = %33, %32, %19, %3
  %12 = call i32 @raxNext(ptr noundef %7)
  %13 = icmp ne i32 %12, 0
  br i1 %13, label %14, label %43

14:                                               ; preds = %11
  %15 = getelementptr inbounds nuw %struct.raxIterator, ptr %7, i32 0, i32 4
  %16 = load i64, ptr %15, align 8, !tbaa !36
  %17 = load i64, ptr %6, align 8, !tbaa !67
  %18 = icmp ugt i64 %16, %17
  br i1 %18, label %19, label %20

19:                                               ; preds = %14
  br label %11, !llvm.loop !104

20:                                               ; preds = %14
  %21 = getelementptr inbounds nuw %struct.raxIterator, ptr %7, i32 0, i32 4
  %22 = load i64, ptr %21, align 8, !tbaa !36
  %23 = icmp ne i64 %22, 0
  br i1 %23, label %24, label %33

24:                                               ; preds = %20
  %25 = getelementptr inbounds nuw %struct.raxIterator, ptr %7, i32 0, i32 2
  %26 = load ptr, ptr %25, align 8, !tbaa !32
  %27 = load ptr, ptr %5, align 8, !tbaa !71
  %28 = getelementptr inbounds nuw %struct.raxIterator, ptr %7, i32 0, i32 4
  %29 = load i64, ptr %28, align 8, !tbaa !36
  %30 = call i32 @memcmp(ptr noundef %26, ptr noundef %27, i64 noundef %29) #12
  %31 = icmp ne i32 %30, 0
  br i1 %31, label %32, label %33

32:                                               ; preds = %24
  br label %11, !llvm.loop !104

33:                                               ; preds = %24, %20
  call void @llvm.lifetime.start.p0(i64 8, ptr %8) #10
  %34 = getelementptr inbounds nuw %struct.raxIterator, ptr %7, i32 0, i32 3
  %35 = load ptr, ptr %34, align 8, !tbaa !105
  store ptr %35, ptr %8, align 8, !tbaa !39
  %36 = load ptr, ptr %8, align 8, !tbaa !39
  %37 = getelementptr inbounds nuw %struct.bcastState, ptr %36, i32 0, i32 0
  %38 = load ptr, ptr %37, align 8, !tbaa !43
  %39 = load ptr, ptr %5, align 8, !tbaa !71
  %40 = load i64, ptr %6, align 8, !tbaa !67
  %41 = load ptr, ptr %4, align 8, !tbaa !5
  %42 = call i32 @raxInsert(ptr noundef %38, ptr noundef %39, i64 noundef %40, ptr noundef %41, ptr noundef null)
  call void @llvm.lifetime.end.p0(i64 8, ptr %8) #10
  br label %11, !llvm.loop !104

43:                                               ; preds = %11
  call void @raxStop(ptr noundef %7)
  call void @llvm.lifetime.end.p0(i64 480, ptr %7) #10
  ret void
}