; Function Attrs: nounwind uwtable
define dso_local void @trackingRememberKeyToBroadcast(ptr noundef %0, ptr noundef %1, i64 noundef %2) local_unnamed_addr #0 {
  %4 = alloca %struct.raxIterator, align 8
  call void @llvm.lifetime.start.p0(i64 480, ptr nonnull %4) #9
  %5 = load ptr, ptr @PrefixTable, align 8, !tbaa !31
  call void @raxStart(ptr noundef nonnull %4, ptr noundef %5) #9
  %6 = call i32 @raxSeek(ptr noundef nonnull %4, ptr noundef nonnull @.str, ptr noundef null, i64 noundef 0) #9
  %7 = call i32 @raxNext(ptr noundef nonnull %4) #9
  %.not8 = icmp eq i32 %7, 0
  br i1 %.not8, label %._crit_edge, label %.lr.ph

.lr.ph:                                           ; preds = %3
  %8 = getelementptr inbounds nuw i8, ptr %4, i64 32
  %9 = getelementptr inbounds nuw i8, ptr %4, i64 16
  %10 = getelementptr inbounds nuw i8, ptr %4, i64 24
  br label %11

11:                                               ; preds = %.lr.ph, %.backedge
  %12 = load i64, ptr %8, align 8, !tbaa !36
  %13 = icmp ugt i64 %12, %2
  br i1 %13, label %.backedge, label %14

14:                                               ; preds = %11
  %.not6 = icmp eq i64 %12, 0
  br i1 %.not6, label %17, label %15

15:                                               ; preds = %14
  %16 = load ptr, ptr %9, align 8, !tbaa !32
  %bcmp = call i32 @bcmp(ptr %16, ptr %1, i64 %12)
  %.not7 = icmp eq i32 %bcmp, 0
  br i1 %.not7, label %17, label %.backedge

17:                                               ; preds = %15, %14
  %18 = load ptr, ptr %10, align 8, !tbaa !100
  %19 = load ptr, ptr %18, align 8, !tbaa !41
  %20 = call i32 @raxInsert(ptr noundef %19, ptr noundef %1, i64 noundef %2, ptr noundef %0, ptr noundef null) #9
  br label %.backedge

.backedge:                                        ; preds = %17, %11, %15
  %21 = call i32 @raxNext(ptr noundef nonnull %4) #9
  %.not = icmp eq i32 %21, 0
  br i1 %.not, label %._crit_edge, label %11, !llvm.loop !101

._crit_edge:                                      ; preds = %.backedge, %3
  call void @raxStop(ptr noundef nonnull %4) #9
  call void @llvm.lifetime.end.p0(i64 480, ptr nonnull %4) #9
  ret void
}